; Function Attrs: mustprogress uwtable
define hidden void @_ZN4ncnn30DeconvolutionDepthWise_x86_avxC2Ev(ptr noundef nonnull align 8 dereferenceable(608) %0) unnamed_addr #2 align 2 personality ptr @__gxx_personality_v0 {
  tail call void @_ZN4ncnn22DeconvolutionDepthWiseC2Ev(ptr noundef nonnull align 8 dereferenceable(512) %0)
  store ptr getelementptr inbounds nuw inrange(-16, 80) (i8, ptr @_ZTVN4ncnn30DeconvolutionDepthWise_x86_avxE, i64 16), ptr %0, align 8, !tbaa !4
  %2 = getelementptr inbounds nuw i8, ptr %0, i64 512
  %3 = getelementptr inbounds nuw i8, ptr %0, i64 568
  %4 = getelementptr inbounds nuw i8, ptr %0, i64 600
  store i64 0, ptr %4, align 8, !tbaa !17
  %5 = getelementptr inbounds nuw i8, ptr %0, i64 11
  tail call void @llvm.memset.p0.i64(ptr noundef nonnull align 8 dereferenceable(52) %2, i8 0, i64 52, i1 false)
  tail call void @llvm.memset.p0.i64(ptr noundef nonnull align 8 dereferenceable(28) %3, i8 0, i64 28, i1 false)
  store i8 1, ptr %5, align 1, !tbaa !99
  ret void
}